target datalayout = "e-m:e-p270:32:32-p271:32:32-p272:64:64-i64:64-i128:128-f80:128-n8:16:32:64-S128"
target triple = "x86_64-pc-linux-gnu"

%struct.SN_env = type { ptr, i32, i32, i32, i32, i32, ptr, ptr }

; Function Attrs: nounwind uwtable
define internal i32 @r_mark_lArI(ptr noundef %0) #0 {
  %2 = alloca i32, align 4
  %3 = alloca ptr, align 8
  store ptr %0, ptr %3, align 8
  %4 = load ptr, ptr %3, align 8
  %5 = getelementptr inbounds nuw %struct.SN_env, ptr %4, i32 0, i32 1
  %6 = load i32, ptr %5, align 8
  %7 = sub i32 %6, 3
  %8 = load ptr, ptr %3, align 8
  %9 = getelementptr inbounds nuw %struct.SN_env, ptr %8, i32 0, i32 3
  %10 = load i32, ptr %9, align 8
  %11 = icmp sle i32 %7, %10
  br i1 %11, label %38, label %12

12:                                               ; preds = %1
  %13 = load ptr, ptr %3, align 8
  %14 = getelementptr inbounds nuw %struct.SN_env, ptr %13, i32 0, i32 0
  %15 = load ptr, ptr %14, align 8
  %16 = load ptr, ptr %3, align 8
  %17 = getelementptr inbounds nuw %struct.SN_env, ptr %16, i32 0, i32 1
  %18 = load i32, ptr %17, align 8
  %19 = sub i32 %18, 1
  %20 = sext i32 %19 to i64
  %21 = getelementptr inbounds i8, ptr %15, i64 %20
  %22 = load i8, ptr %21, align 1
  %23 = zext i8 %22 to i32
  %24 = icmp ne i32 %23, 105
  br i1 %24, label %25, label %39

25:                                               ; preds = %12
  %26 = load ptr, ptr %3, align 8
  %27 = getelementptr inbounds nuw %struct.SN_env, ptr %26, i32 0, i32 0
  %28 = load ptr, ptr %27, align 8
  %29 = load ptr, ptr %3, align 8
  %30 = getelementptr inbounds nuw %struct.SN_env, ptr %29, i32 0, i32 1
  %31 = load i32, ptr %30, align 8
  %32 = sub i32 %31, 1
  %33 = sext i32 %32 to i64
  %34 = getelementptr inbounds i8, ptr %28, i64 %33
  %35 = load i8, ptr %34, align 1
  %36 = zext i8 %35 to i32
  %37 = icmp ne i32 %36, 177
  br i1 %37, label %38, label %39

38:                                               ; preds = %25, %1
  store i32 0, ptr %2, align 4
  br label %45

39:                                               ; preds = %25, %12
  %40 = load ptr, ptr %3, align 8
  %41 = call i32 @find_among_b(ptr noundef %40, ptr noundef @a_1, i32 noundef 2)
  %42 = icmp ne i32 %41, 0
  br i1 %42, label %44, label %43

43:                                               ; preds = %39
  store i32 0, ptr %2, align 4
  br label %45

44:                                               ; preds = %39
  store i32 1, ptr %2, align 4
  br label %45

45:                                               ; preds = %44, %43, %38
  %46 = load i32, ptr %2, align 4
  ret i32 %46
}