; Function Attrs: nounwind uwtable
define internal fastcc range(i32 0, 2) i32 @r_mark_lArI(ptr noundef %0) unnamed_addr #0 {
  %2 = getelementptr inbounds nuw i8, ptr %0, i64 8
  %3 = load i32, ptr %2, align 8
  %4 = add i32 %3, -3
  %5 = getelementptr inbounds nuw i8, ptr %0, i64 16
  %6 = load i32, ptr %5, align 8
  %.not = icmp sgt i32 %4, %6
  br i1 %.not, label %7, label %15

7:                                                ; preds = %1
  %8 = load ptr, ptr %0, align 8
  %9 = add i32 %3, -1
  %10 = sext i32 %9 to i64
  %11 = getelementptr inbounds i8, ptr %8, i64 %10
  %12 = load i8, ptr %11, align 1
  switch i8 %12, label %15 [
    i8 105, label %13
    i8 -79, label %13
  ]

13:                                               ; preds = %7, %7
  %14 = tail call i32 @find_among_b(ptr noundef nonnull %0, ptr noundef nonnull @a_1, i32 noundef 2) #3
  %.not10 = icmp ne i32 %14, 0
  %. = zext i1 %.not10 to i32
  br label %15

15:                                               ; preds = %13, %1, %7
  %.0 = phi i32 [ 0, %7 ], [ 0, %1 ], [ %., %13 ]
  ret i32 %.0
}